target datalayout = "e-m:e-p270:32:32-p271:32:32-p272:64:64-i64:64-i128:128-f80:128-n8:16:32:64-S128"
target triple = "x86_64-unknown-linux-gnu"

%"class.spacer::model_node" = type <{ %class.ref, ptr, %class.ptr_vector, ptr, ptr, i32, i32, i8, [7 x i8] }>
%class.ref = type { ptr }
%class.ptr_vector = type { %class.vector }
%class.vector = type { ptr }
%"class.spacer::pob" = type { i32, %class.ref, ptr, %class.obj_ref, %class.ref_vector, %class.obj_ref, i56, i32, %class.scoped_ptr, %class.ptr_vector.2, %class.ptr_vector.4, i32, %class.obj_ref, i32, %class.scoped_ptr.6 }
%class.ref_vector = type { %class.ref_vector_core }
%class.ref_vector_core = type { %class.ref_manager_wrapper, %class.ptr_vector.0 }
%class.ref_manager_wrapper = type { ptr }
%class.ptr_vector.0 = type { %class.vector.1 }
%class.vector.1 = type { ptr }
%class.scoped_ptr = type { ptr }
%class.ptr_vector.2 = type { %class.vector.3 }
%class.vector.3 = type { ptr }
%class.ptr_vector.4 = type { %class.vector.5 }
%class.vector.5 = type { ptr }
%class.obj_ref = type { ptr, ptr }
%class.scoped_ptr.6 = type { ptr }
%"class.spacer::model_search" = type { i8, ptr, ptr, %class.vector.7 }
%class.vector.7 = type { ptr }

@.str = private unnamed_addr constant [113 x i8] c"generated/home/dtcxzyw/WorkSpace/Projects/compilers/llvm-opt-benchmark/bench/z3/z3/src/muz/spacer/spacer_pdr.cpp\00", align 1
@.str.2 = private unnamed_addr constant [21 x i8] c"NOT IMPLEMENTED YET!\00", align 1

; Function Attrs: mustprogress nounwind uwtable
define linkonce_odr hidden void @_ZN6spacer3pob14reset_weaknessEv(ptr noundef nonnull align 8 dereferenceable(152) %this) #5 comdat align 2 {
entry:
  %this.addr = alloca ptr, align 8
  store ptr %this, ptr %this.addr, align 8
  %this1 = load ptr, ptr %this.addr, align 8
  %m_weakness = getelementptr inbounds %"class.spacer::pob", ptr %this1, i32 0, i32 7
  store i32 0, ptr %m_weakness, align 8
  ret void
}

; Function Attrs: mustprogress nounwind uwtable
define linkonce_odr hidden noundef ptr @_ZNK6spacer10model_node4nextEv(ptr noundef nonnull align 8 dereferenceable(49) %this) #5 comdat align 2 {
entry:
  %this.addr = alloca ptr, align 8
  store ptr %this, ptr %this.addr, align 8
  %this1 = load ptr, ptr %this.addr, align 8
  %m_next = getelementptr inbounds %"class.spacer::model_node", ptr %this1, i32 0, i32 3
  %0 = load ptr, ptr %m_next, align 8
  ret ptr %0
}

; Function Attrs: mustprogress nounwind uwtable
define hidden void @_ZN6spacer10model_node12insert_afterEPS0_(ptr noundef nonnull align 8 dereferenceable(49) %this, ptr noundef %n) #5 align 2 {
entry:
  %this.addr = alloca ptr, align 8
  %n.addr = alloca ptr, align 8
  store ptr %this, ptr %this.addr, align 8
  store ptr %n, ptr %n.addr, align 8
  %this1 = load ptr, ptr %this.addr, align 8
  %0 = load ptr, ptr %n.addr, align 8
  %cmp = icmp eq ptr %this1, %0
  br i1 %cmp, label %if.then, label %if.else

if.then:                                          ; preds = %entry
  %1 = load ptr, ptr %n.addr, align 8
  %m_next = getelementptr inbounds %"class.spacer::model_node", ptr %this1, i32 0, i32 3
  store ptr %1, ptr %m_next, align 8
  %2 = load ptr, ptr %n.addr, align 8
  %m_prev = getelementptr inbounds %"class.spacer::model_node", ptr %this1, i32 0, i32 4
  store ptr %2, ptr %m_prev, align 8
  br label %if.end

if.else:                                          ; preds = %entry
  %m_next2 = getelementptr inbounds %"class.spacer::model_node", ptr %this1, i32 0, i32 3
  %3 = load ptr, ptr %m_next2, align 8
  %4 = load ptr, ptr %n.addr, align 8
  %m_next3 = getelementptr inbounds %"class.spacer::model_node", ptr %4, i32 0, i32 3
  store ptr %3, ptr %m_next3, align 8
  %5 = load ptr, ptr %n.addr, align 8
  %m_next4 = getelementptr inbounds %"class.spacer::model_node", ptr %this1, i32 0, i32 3
  %6 = load ptr, ptr %m_next4, align 8
  %m_prev5 = getelementptr inbounds %"class.spacer::model_node", ptr %6, i32 0, i32 4
  store ptr %5, ptr %m_prev5, align 8
  %7 = load ptr, ptr %n.addr, align 8
  %m_next6 = getelementptr inbounds %"class.spacer::model_node", ptr %this1, i32 0, i32 3
  store ptr %7, ptr %m_next6, align 8
  %8 = load ptr, ptr %n.addr, align 8
  %m_prev7 = getelementptr inbounds %"class.spacer::model_node", ptr %8, i32 0, i32 4
  store ptr %this1, ptr %m_prev7, align 8
  br label %if.end

if.end:                                           ; preds = %if.else, %if.then
  ret void
}

; Function Attrs: mustprogress uwtable
define linkonce_odr hidden void @_ZN6spacer3pob9inc_levelEv(ptr noundef nonnull align 8 dereferenceable(152) %this) #4 comdat align 2 {
entry:
  %this.addr = alloca ptr, align 8
  store ptr %this, ptr %this.addr, align 8
  %this1 = load ptr, ptr %this.addr, align 8
  %m_level = getelementptr inbounds %"class.spacer::pob", ptr %this1, i32 0, i32 6
  %bf.load = load i64, ptr %m_level, align 8
  %bf.clear = and i64 %bf.load, 65535
  %bf.cast = trunc i64 %bf.clear to i32
  %inc = add i32 %bf.cast, 1
  %0 = zext i32 %inc to i64
  %bf.load2 = load i64, ptr %m_level, align 8
  %bf.value = and i64 %0, 65535
  %bf.clear3 = and i64 %bf.load2, -65536
  %bf.set = or i64 %bf.clear3, %bf.value
  store i64 %bf.set, ptr %m_level, align 8
  %m_depth = getelementptr inbounds %"class.spacer::pob", ptr %this1, i32 0, i32 6
  %bf.load4 = load i64, ptr %m_depth, align 8
  %bf.lshr = lshr i64 %bf.load4, 16
  %bf.clear5 = and i64 %bf.lshr, 65535
  %bf.cast6 = trunc i64 %bf.clear5 to i32
  %inc7 = add i32 %bf.cast6, 1
  %1 = zext i32 %inc7 to i64
  %bf.load8 = load i64, ptr %m_depth, align 8
  %bf.value9 = and i64 %1, 65535
  %bf.shl = shl i64 %bf.value9, 16
  %bf.clear10 = and i64 %bf.load8, -4294901761
  %bf.set11 = or i64 %bf.clear10, %bf.shl
  store i64 %bf.set11, ptr %m_depth, align 8
  call void @_ZN6spacer3pob14reset_weaknessEv(ptr noundef nonnull align 8 dereferenceable(152) %this1)
  ret void
}

; Function Attrs: mustprogress nounwind uwtable
define linkonce_odr hidden noundef i32 @_ZNK6spacer3pob5levelEv(ptr noundef nonnull align 8 dereferenceable(152) %this) #5 comdat align 2 {
entry:
  %this.addr = alloca ptr, align 8
  store ptr %this, ptr %this.addr, align 8
  %this1 = load ptr, ptr %this.addr, align 8
  %m_level = getelementptr inbounds %"class.spacer::pob", ptr %this1, i32 0, i32 6
  %bf.load = load i64, ptr %m_level, align 8
  %bf.clear = and i64 %bf.load, 65535
  %bf.cast = trunc i64 %bf.clear to i32
  ret i32 %bf.cast
}

; Function Attrs: mustprogress nounwind uwtable
define linkonce_odr hidden noundef ptr @_ZNK3refIN6spacer3pobEEptEv(ptr noundef nonnull align 8 dereferenceable(8) %this) #5 comdat align 2 {
entry:
  %this.addr = alloca ptr, align 8
  store ptr %this, ptr %this.addr, align 8
  %this1 = load ptr, ptr %this.addr, align 8
  %m_ptr = getelementptr inbounds %class.ref, ptr %this1, i32 0, i32 0
  %0 = load ptr, ptr %m_ptr, align 8
  ret ptr %0
}

; Function Attrs: mustprogress nounwind uwtable
define linkonce_odr hidden noundef ptr @_ZNK6spacer10model_node6parentEv(ptr noundef nonnull align 8 dereferenceable(49) %this) #5 comdat align 2 {
entry:
  %this.addr = alloca ptr, align 8
  store ptr %this, ptr %this.addr, align 8
  %this1 = load ptr, ptr %this.addr, align 8
  %m_parent = getelementptr inbounds %"class.spacer::model_node", ptr %this1, i32 0, i32 1
  %0 = load ptr, ptr %m_parent, align 8
  ret ptr %0
}

; Function Attrs: mustprogress uwtable
define hidden void @_ZN6spacer12model_search12enqueue_leafERNS_10model_nodeE(ptr noundef nonnull align 8 dereferenceable(32) %this, ptr noundef nonnull align 8 dereferenceable(49) %n) #4 align 2 {
entry:
  %this.addr = alloca ptr, align 8
  %n.addr = alloca ptr, align 8
  store ptr %this, ptr %this.addr, align 8
  store ptr %n, ptr %n.addr, align 8
  %this1 = load ptr, ptr %this.addr, align 8
  %m_qhead = getelementptr inbounds %"class.spacer::model_search", ptr %this1, i32 0, i32 2
  %0 = load ptr, ptr %m_qhead, align 8
  %tobool = icmp ne ptr %0, null
  br i1 %tobool, label %if.else, label %if.then

if.then:                                          ; preds = %entry
  %1 = load ptr, ptr %n.addr, align 8
  %m_qhead2 = getelementptr inbounds %"class.spacer::model_search", ptr %this1, i32 0, i32 2
  store ptr %1, ptr %m_qhead2, align 8
  %m_qhead3 = getelementptr inbounds %"class.spacer::model_search", ptr %this1, i32 0, i32 2
  %2 = load ptr, ptr %m_qhead3, align 8
  %m_qhead4 = getelementptr inbounds %"class.spacer::model_search", ptr %this1, i32 0, i32 2
  %3 = load ptr, ptr %m_qhead4, align 8
  call void @_ZN6spacer10model_node12insert_afterEPS0_(ptr noundef nonnull align 8 dereferenceable(49) %2, ptr noundef %3)
  br label %if.end10

if.else:                                          ; preds = %entry
  %m_bfs = getelementptr inbounds %"class.spacer::model_search", ptr %this1, i32 0, i32 0
  %4 = load i8, ptr %m_bfs, align 8
  %tobool5 = trunc i8 %4 to i1
  br i1 %tobool5, label %if.then6, label %if.else8

if.then6:                                         ; preds = %if.else
  %m_qhead7 = getelementptr inbounds %"class.spacer::model_search", ptr %this1, i32 0, i32 2
  %5 = load ptr, ptr %m_qhead7, align 8
  %6 = load ptr, ptr %n.addr, align 8
  call void @_ZN6spacer10model_node12insert_afterEPS0_(ptr noundef nonnull align 8 dereferenceable(49) %5, ptr noundef %6)
  br label %if.end

if.else8:                                         ; preds = %if.else
  %m_qhead9 = getelementptr inbounds %"class.spacer::model_search", ptr %this1, i32 0, i32 2
  %7 = load ptr, ptr %m_qhead9, align 8
  %call = call noundef ptr @_ZNK6spacer10model_node4nextEv(ptr noundef nonnull align 8 dereferenceable(49) %7)
  %8 = load ptr, ptr %n.addr, align 8
  call void @_ZN6spacer10model_node12insert_afterEPS0_(ptr noundef nonnull align 8 dereferenceable(49) %call, ptr noundef %8)
  br label %if.end

if.end:                                           ; preds = %if.else8, %if.then6
  br label %if.end10

if.end10:                                         ; preds = %if.end, %if.then
  ret void
}

; Function Attrs: mustprogress uwtable
define linkonce_odr hidden void @_ZN6spacer10model_node14increase_levelEv(ptr noundef nonnull align 8 dereferenceable(49) %this) #4 comdat align 2 {
entry:
  %this.addr = alloca ptr, align 8
  store ptr %this, ptr %this.addr, align 8
  %this1 = load ptr, ptr %this.addr, align 8
  %m_pob = getelementptr inbounds %"class.spacer::model_node", ptr %this1, i32 0, i32 0
  %call = call noundef ptr @_ZNK3refIN6spacer3pobEEptEv(ptr noundef nonnull align 8 dereferenceable(8) %m_pob)
  call void @_ZN6spacer3pob9inc_levelEv(ptr noundef nonnull align 8 dereferenceable(152) %call)
  ret void
}

; Function Attrs: mustprogress uwtable
define linkonce_odr hidden noundef i32 @_ZNK6spacer10model_node5levelEv(ptr noundef nonnull align 8 dereferenceable(49) %this) #4 comdat align 2 {
entry:
  %this.addr = alloca ptr, align 8
  store ptr %this, ptr %this.addr, align 8
  %this1 = load ptr, ptr %this.addr, align 8
  %m_pob = getelementptr inbounds %"class.spacer::model_node", ptr %this1, i32 0, i32 0
  %call = call noundef ptr @_ZNK3refIN6spacer3pobEEptEv(ptr noundef nonnull align 8 dereferenceable(8) %m_pob)
  %call2 = call noundef i32 @_ZNK6spacer3pob5levelEv(ptr noundef nonnull align 8 dereferenceable(152) %call)
  ret i32 %call2
}

; Function Attrs: mustprogress uwtable
define hidden void @_ZN6spacer12model_search15backtrack_levelEbRNS_10model_nodeE(ptr noundef nonnull align 8 dereferenceable(32) %this, i1 noundef zeroext %uses_level, ptr noundef nonnull align 8 dereferenceable(49) %n) #4 align 2 {
entry:
  %this.addr = alloca ptr, align 8
  %uses_level.addr = alloca i8, align 1
  %n.addr = alloca ptr, align 8
  %p = alloca ptr, align 8
  store ptr %this, ptr %this.addr, align 8
  %frombool = zext i1 %uses_level to i8
  store i8 %frombool, ptr %uses_level.addr, align 1
  store ptr %n, ptr %n.addr, align 8
  %this1 = load ptr, ptr %this.addr, align 8
  %0 = load i8, ptr %uses_level.addr, align 1
  %tobool = trunc i8 %0 to i1
  br i1 %tobool, label %if.then, label %if.end

if.then:                                          ; preds = %entry
  call void @_Z26notify_assertion_violationPKciS0_(ptr noundef @.str, i32 noundef 174, ptr noundef @.str.2)
  call void @exit(i32 noundef 107) #13
  unreachable

if.end:                                           ; preds = %entry
  %1 = load i8, ptr %uses_level.addr, align 1
  %tobool2 = trunc i8 %1 to i1
  br i1 %tobool2, label %land.lhs.true, label %if.else

land.lhs.true:                                    ; preds = %if.end
  %m_root = getelementptr inbounds %"class.spacer::model_search", ptr %this1, i32 0, i32 1
  %2 = load ptr, ptr %m_root, align 8
  %call = call noundef i32 @_ZNK6spacer10model_node5levelEv(ptr noundef nonnull align 8 dereferenceable(49) %2)
  %3 = load ptr, ptr %n.addr, align 8
  %call3 = call noundef i32 @_ZNK6spacer10model_node5levelEv(ptr noundef nonnull align 8 dereferenceable(49) %3)
  %cmp = icmp ugt i32 %call, %call3
  br i1 %cmp, label %if.then4, label %if.else

if.then4:                                         ; preds = %land.lhs.true
  %4 = load ptr, ptr %n.addr, align 8
  call void @_ZN6spacer10model_node14increase_levelEv(ptr noundef nonnull align 8 dereferenceable(49) %4)
  %5 = load ptr, ptr %n.addr, align 8
  call void @_ZN6spacer12model_search12enqueue_leafERNS_10model_nodeE(ptr noundef nonnull align 8 dereferenceable(32) %this1, ptr noundef nonnull align 8 dereferenceable(49) %5)
  br label %if.end9

if.else:                                          ; preds = %land.lhs.true, %if.end
  %6 = load ptr, ptr %n.addr, align 8
  %call5 = call noundef ptr @_ZNK6spacer10model_node6parentEv(ptr noundef nonnull align 8 dereferenceable(49) %6)
  store ptr %call5, ptr %p, align 8
  %7 = load ptr, ptr %p, align 8
  %tobool6 = icmp ne ptr %7, null
  br i1 %tobool6, label %if.then7, label %if.end8

if.then7:                                         ; preds = %if.else
  %8 = load ptr, ptr %p, align 8
  call void @_ZN6spacer12model_search14erase_childrenERNS_10model_nodeEb(ptr noundef nonnull align 8 dereferenceable(32) %this1, ptr noundef nonnull align 8 dereferenceable(49) %8, i1 noundef zeroext true)
  %9 = load ptr, ptr %p, align 8
  call void @_ZN6spacer12model_search12enqueue_leafERNS_10model_nodeE(ptr noundef nonnull align 8 dereferenceable(32) %this1, ptr noundef nonnull align 8 dereferenceable(49) %9)
  br label %if.end8

if.end8:                                          ; preds = %if.then7, %if.else
  br label %if.end9

if.end9:                                          ; preds = %if.end8, %if.then4
  ret void
}