; Function Attrs: mustprogress uwtable
define hidden void @_ZN6spacer12model_search15backtrack_levelEbRNS_10model_nodeE(ptr noundef nonnull align 8 dereferenceable(32) %this, i1 noundef zeroext %uses_level, ptr nocapture noundef nonnull readonly align 8 dereferenceable(49) %n) local_unnamed_addr #3 align 2 {
entry:
  br i1 %uses_level, label %if.then, label %if.else

if.then:                                          ; preds = %entry
  tail call void @_Z26notify_assertion_violationPKciS0_(ptr noundef nonnull @.str, i32 noundef 174, ptr noundef nonnull @.str.2)
  tail call void @exit(i32 noundef 107) #19
  unreachable

if.else:                                          ; preds = %entry
  %m_parent.i = getelementptr inbounds i8, ptr %n, i64 8
  %0 = load ptr, ptr %m_parent.i, align 8
  %tobool6.not = icmp eq ptr %0, null
  br i1 %tobool6.not, label %if.end9, label %if.then7

if.then7:                                         ; preds = %if.else
  tail call void @_ZN6spacer12model_search14erase_childrenERNS_10model_nodeEb(ptr noundef nonnull align 8 dereferenceable(32) %this, ptr noundef nonnull align 8 dereferenceable(49) %0, i1 noundef zeroext true)
  %m_qhead.i = getelementptr inbounds i8, ptr %this, i64 16
  %1 = load ptr, ptr %m_qhead.i, align 8
  %tobool.not.i = icmp eq ptr %1, null
  br i1 %tobool.not.i, label %if.then.i, label %if.else.i

if.then.i:                                        ; preds = %if.then7
  store ptr %0, ptr %m_qhead.i, align 8
  %m_next.i.i = getelementptr inbounds i8, ptr %0, i64 24
  br label %_ZN6spacer12model_search12enqueue_leafERNS_10model_nodeE.exit

if.else.i:                                        ; preds = %if.then7
  %2 = load i8, ptr %this, align 8
  %3 = and i8 %2, 1
  %tobool5.not.i = icmp eq i8 %3, 0
  br i1 %tobool5.not.i, label %if.else8.i, label %if.then6.i

if.then6.i:                                       ; preds = %if.else.i
  %cmp.i.i = icmp eq ptr %1, %0
  %m_next.i3.i = getelementptr inbounds i8, ptr %1, i64 24
  br i1 %cmp.i.i, label %_ZN6spacer12model_search12enqueue_leafERNS_10model_nodeE.exit, label %if.else.i.i

if.else.i.i:                                      ; preds = %if.then6.i
  %4 = load ptr, ptr %m_next.i3.i, align 8
  %m_next3.i.i = getelementptr inbounds i8, ptr %0, i64 24
  store ptr %4, ptr %m_next3.i.i, align 8
  %m_prev5.i.i = getelementptr inbounds i8, ptr %4, i64 32
  store ptr %0, ptr %m_prev5.i.i, align 8
  br label %_ZN6spacer12model_search12enqueue_leafERNS_10model_nodeE.exit

if.else8.i:                                       ; preds = %if.else.i
  %m_next.i5.i = getelementptr inbounds i8, ptr %1, i64 24
  %5 = load ptr, ptr %m_next.i5.i, align 8
  %cmp.i6.i = icmp eq ptr %5, %0
  %m_next.i7.i = getelementptr inbounds i8, ptr %5, i64 24
  br i1 %cmp.i6.i, label %_ZN6spacer12model_search12enqueue_leafERNS_10model_nodeE.exit, label %if.else.i8.i

if.else.i8.i:                                     ; preds = %if.else8.i
  %6 = load ptr, ptr %m_next.i7.i, align 8
  %m_next3.i9.i = getelementptr inbounds i8, ptr %0, i64 24
  store ptr %6, ptr %m_next3.i9.i, align 8
  %m_prev5.i10.i = getelementptr inbounds i8, ptr %6, i64 32
  store ptr %0, ptr %m_prev5.i10.i, align 8
  br label %_ZN6spacer12model_search12enqueue_leafERNS_10model_nodeE.exit

_ZN6spacer12model_search12enqueue_leafERNS_10model_nodeE.exit: ; preds = %if.then.i, %if.then6.i, %if.else.i.i, %if.else8.i, %if.else.i8.i
  %m_next.i3.sink.i = phi ptr [ %m_next.i.i, %if.then.i ], [ %m_next.i3.i, %if.then6.i ], [ %m_next.i3.i, %if.else.i.i ], [ %m_next.i7.i, %if.else8.i ], [ %m_next.i7.i, %if.else.i8.i ]
  %.sink.i = phi ptr [ %0, %if.then.i ], [ %0, %if.then6.i ], [ %1, %if.else.i.i ], [ %0, %if.else8.i ], [ %5, %if.else.i8.i ]
  store ptr %0, ptr %m_next.i3.sink.i, align 8
  %m_prev7.i4.i = getelementptr inbounds i8, ptr %0, i64 32
  store ptr %.sink.i, ptr %m_prev7.i4.i, align 8
  br label %if.end9

if.end9:                                          ; preds = %if.else, %_ZN6spacer12model_search12enqueue_leafERNS_10model_nodeE.exit
  ret void
}